target datalayout = "e-m:e-p270:32:32-p271:32:32-p272:64:64-i64:64-i128:128-f80:128-n8:16:32:64-S128"
target triple = "x86_64-pc-linux-gnu"

%struct.mbedtls_ecp_group = type { i32, %struct.mbedtls_mpi, %struct.mbedtls_mpi, %struct.mbedtls_mpi, %struct.mbedtls_ecp_point, %struct.mbedtls_mpi, i64, i64, i32, ptr, ptr, ptr, ptr, ptr, i64 }
%struct.mbedtls_ecp_point = type { %struct.mbedtls_mpi, %struct.mbedtls_mpi, %struct.mbedtls_mpi }
%struct.mbedtls_mpi = type { ptr, i16, i16 }
%struct.mbedtls_ecp_keypair = type { %struct.mbedtls_ecp_group, %struct.mbedtls_mpi, %struct.mbedtls_ecp_point }

; Function Attrs: nounwind uwtable
define hidden i32 @mbedtls_ecp_mul_restartable(ptr noundef %0, ptr noundef %1, ptr noundef %2, ptr noundef %3, ptr noundef %4, ptr noundef %5, ptr noundef %6) #0 {
  %8 = alloca i32, align 4
  %9 = alloca ptr, align 8
  %10 = alloca ptr, align 8
  %11 = alloca ptr, align 8
  %12 = alloca ptr, align 8
  %13 = alloca ptr, align 8
  %14 = alloca ptr, align 8
  %15 = alloca ptr, align 8
  store ptr %0, ptr %9, align 8, !tbaa !25
  store ptr %1, ptr %10, align 8, !tbaa !34
  store ptr %2, ptr %11, align 8, !tbaa !50
  store ptr %3, ptr %12, align 8, !tbaa !34
  store ptr %4, ptr %13, align 8, !tbaa !55
  store ptr %5, ptr %14, align 8, !tbaa !55
  store ptr %6, ptr %15, align 8, !tbaa !55
  %16 = load ptr, ptr %13, align 8, !tbaa !55
  %17 = icmp eq ptr %16, null
  br i1 %17, label %18, label %19

18:                                               ; preds = %7
  store i32 -20352, ptr %8, align 4
  br label %28

19:                                               ; preds = %7
  %20 = load ptr, ptr %9, align 8, !tbaa !25
  %21 = load ptr, ptr %10, align 8, !tbaa !34
  %22 = load ptr, ptr %11, align 8, !tbaa !50
  %23 = load ptr, ptr %12, align 8, !tbaa !34
  %24 = load ptr, ptr %13, align 8, !tbaa !55
  %25 = load ptr, ptr %14, align 8, !tbaa !55
  %26 = load ptr, ptr %15, align 8, !tbaa !55
  %27 = call i32 @ecp_mul_restartable_internal(ptr noundef %20, ptr noundef %21, ptr noundef %22, ptr noundef %23, ptr noundef %24, ptr noundef %25, ptr noundef %26)
  store i32 %27, ptr %8, align 4
  br label %28

28:                                               ; preds = %19, %18
  %29 = load i32, ptr %8, align 4
  ret i32 %29
}

; Function Attrs: nounwind uwtable
define hidden i32 @mbedtls_ecp_mul(ptr noundef %0, ptr noundef %1, ptr noundef %2, ptr noundef %3, ptr noundef %4, ptr noundef %5) #0 {
  %7 = alloca ptr, align 8
  %8 = alloca ptr, align 8
  %9 = alloca ptr, align 8
  %10 = alloca ptr, align 8
  %11 = alloca ptr, align 8
  %12 = alloca ptr, align 8
  store ptr %0, ptr %7, align 8, !tbaa !25
  store ptr %1, ptr %8, align 8, !tbaa !34
  store ptr %2, ptr %9, align 8, !tbaa !50
  store ptr %3, ptr %10, align 8, !tbaa !34
  store ptr %4, ptr %11, align 8, !tbaa !55
  store ptr %5, ptr %12, align 8, !tbaa !55
  %13 = load ptr, ptr %7, align 8, !tbaa !25
  %14 = load ptr, ptr %8, align 8, !tbaa !34
  %15 = load ptr, ptr %9, align 8, !tbaa !50
  %16 = load ptr, ptr %10, align 8, !tbaa !34
  %17 = load ptr, ptr %11, align 8, !tbaa !55
  %18 = load ptr, ptr %12, align 8, !tbaa !55
  %19 = call i32 @mbedtls_ecp_mul_restartable(ptr noundef %13, ptr noundef %14, ptr noundef %15, ptr noundef %16, ptr noundef %17, ptr noundef %18, ptr noundef null)
  ret i32 %19
}

; Function Attrs: nounwind uwtable
define hidden i32 @mbedtls_ecp_keypair_calc_public(ptr noundef %0, ptr noundef %1, ptr noundef %2) #0 {
  %4 = alloca ptr, align 8
  %5 = alloca ptr, align 8
  %6 = alloca ptr, align 8
  store ptr %0, ptr %4, align 8, !tbaa !45
  store ptr %1, ptr %5, align 8, !tbaa !55
  store ptr %2, ptr %6, align 8, !tbaa !55
  %7 = load ptr, ptr %4, align 8, !tbaa !45
  %8 = getelementptr inbounds nuw %struct.mbedtls_ecp_keypair, ptr %7, i32 0, i32 0
  %9 = load ptr, ptr %4, align 8, !tbaa !45
  %10 = getelementptr inbounds nuw %struct.mbedtls_ecp_keypair, ptr %9, i32 0, i32 2
  %11 = load ptr, ptr %4, align 8, !tbaa !45
  %12 = getelementptr inbounds nuw %struct.mbedtls_ecp_keypair, ptr %11, i32 0, i32 1
  %13 = load ptr, ptr %4, align 8, !tbaa !45
  %14 = getelementptr inbounds nuw %struct.mbedtls_ecp_keypair, ptr %13, i32 0, i32 0
  %15 = getelementptr inbounds nuw %struct.mbedtls_ecp_group, ptr %14, i32 0, i32 4
  %16 = load ptr, ptr %5, align 8, !tbaa !55
  %17 = load ptr, ptr %6, align 8, !tbaa !55
  %18 = call i32 @mbedtls_ecp_mul(ptr noundef %8, ptr noundef %10, ptr noundef %12, ptr noundef %15, ptr noundef %16, ptr noundef %17)
  ret i32 %18
}