; Function Attrs: nounwind uwtable
define hidden i32 @mbedtls_ecp_keypair_calc_public(ptr noundef %0, ptr noundef %1, ptr noundef %2) local_unnamed_addr #7 {
  %4 = icmp eq ptr %1, null
  br i1 %4, label %mbedtls_ecp_mul.exit, label %5

5:                                                ; preds = %3
  %6 = getelementptr inbounds nuw i8, ptr %0, i64 56
  %7 = getelementptr inbounds nuw i8, ptr %0, i64 192
  %8 = getelementptr inbounds nuw i8, ptr %0, i64 208
  %9 = tail call fastcc i32 @ecp_mul_restartable_internal(ptr noundef %0, ptr noundef nonnull %8, ptr noundef nonnull %7, ptr noundef nonnull %6, ptr noundef nonnull %1, ptr noundef %2)
  br label %mbedtls_ecp_mul.exit

mbedtls_ecp_mul.exit:                             ; preds = %3, %5
  %.0.i.i = phi i32 [ %9, %5 ], [ -20352, %3 ]
  ret i32 %.0.i.i
}